; ModuleID = '16/291.c'
source_filename = "16/291.c"
target datalayout = "e-m:e-p270:32:32-p271:32:32-p272:64:64-i64:64-f80:128-n8:16:32:64-S128"
target triple = "x86_64-pc-linux-gnu"

@.str = private unnamed_addr constant [3 x i8] c"%d\00", align 1
@.str.1 = private unnamed_addr constant [10 x i8] c"%d%d%d%d\0A\00", align 1
@.str.2 = private unnamed_addr constant [8 x i8] c"%d%d%d\0A\00", align 1
@.str.3 = private unnamed_addr constant [6 x i8] c"%d%d\0A\00", align 1
@.str.4 = private unnamed_addr constant [4 x i8] c"%d\0A\00", align 1

; Function Attrs: noinline nounwind uwtable
define dso_local i32 @main() #0 {
  %1 = alloca i32, align 4
  %2 = alloca i32, align 4
  %3 = alloca i32, align 4
  %4 = alloca i32, align 4
  %5 = alloca i32, align 4
  %6 = alloca i32, align 4
  %7 = alloca i32, align 4
  store i32 0, i32* %1, align 4
  %8 = call i32 (i8*, ...) @__isoc99_scanf(i8* getelementptr inbounds ([3 x i8], [3 x i8]* @.str, i64 0, i64 0), i32* %2)
  %9 = load i32, i32* %2, align 4
  %10 = icmp sge i32 %9, 1000
  br i1 %10, label %11, label %12

11:                                               ; preds = %0
  store i32 4, i32* %7, align 4
  br label %23

12:                                               ; preds = %0
  %13 = load i32, i32* %2, align 4
  %14 = icmp sgt i32 %13, 99
  br i1 %14, label %15, label %16

15:                                               ; preds = %12
  store i32 3, i32* %7, align 4
  br label %22

16:                                               ; preds = %12
  %17 = load i32, i32* %2, align 4
  %18 = icmp sgt i32 %17, 9
  br i1 %18, label %19, label %20

19:                                               ; preds = %16
  store i32 2, i32* %7, align 4
  br label %21

20:                                               ; preds = %16
  store i32 1, i32* %7, align 4
  br label %21

21:                                               ; preds = %20, %19
  br label %22

22:                                               ; preds = %21, %15
  br label %23

23:                                               ; preds = %22, %11
  %24 = load i32, i32* %2, align 4
  %25 = sdiv i32 %24, 1000
  store i32 %25, i32* %3, align 4
  %26 = load i32, i32* %2, align 4
  %27 = load i32, i32* %3, align 4
  %28 = mul nsw i32 %27, 1000
  %29 = sub nsw i32 %26, %28
  %30 = sdiv i32 %29, 100
  store i32 %30, i32* %4, align 4
  %31 = load i32, i32* %2, align 4
  %32 = load i32, i32* %3, align 4
  %33 = mul nsw i32 %32, 1000
  %34 = sub nsw i32 %31, %33
  %35 = load i32, i32* %4, align 4
  %36 = mul nsw i32 %35, 100
  %37 = sub nsw i32 %34, %36
  %38 = sdiv i32 %37, 10
  store i32 %38, i32* %5, align 4
  %39 = load i32, i32* %2, align 4
  %40 = srem i32 %39, 10
  store i32 %40, i32* %6, align 4
  %41 = load i32, i32* %7, align 4
  switch i32 %41, label %60 [
    i32 4, label %42
    i32 3, label %48
    i32 2, label %53
    i32 1, label %57
  ]

42:                                               ; preds = %23
  %43 = load i32, i32* %6, align 4
  %44 = load i32, i32* %5, align 4
  %45 = load i32, i32* %4, align 4
  %46 = load i32, i32* %3, align 4
  %47 = call i32 (i8*, ...) @printf(i8* getelementptr inbounds ([10 x i8], [10 x i8]* @.str.1, i64 0, i64 0), i32 %43, i32 %44, i32 %45, i32 %46)
  br label %60

48:                                               ; preds = %23
  %49 = load i32, i32* %6, align 4
  %50 = load i32, i32* %5, align 4
  %51 = load i32, i32* %4, align 4
  %52 = call i32 (i8*, ...) @printf(i8* getelementptr inbounds ([8 x i8], [8 x i8]* @.str.2, i64 0, i64 0), i32 %49, i32 %50, i32 %51)
  br label %60

53:                                               ; preds = %23
  %54 = load i32, i32* %6, align 4
  %55 = load i32, i32* %5, align 4
  %56 = call i32 (i8*, ...) @printf(i8* getelementptr inbounds ([6 x i8], [6 x i8]* @.str.3, i64 0, i64 0), i32 %54, i32 %55)
  br label %60

57:                                               ; preds = %23
  %58 = load i32, i32* %6, align 4
  %59 = call i32 (i8*, ...) @printf(i8* getelementptr inbounds ([4 x i8], [4 x i8]* @.str.4, i64 0, i64 0), i32 %58)
  br label %60

60:                                               ; preds = %23, %57, %53, %48, %42
  ret i32 0
}

declare dso_local i32 @__isoc99_scanf(i8*, ...) #1

declare dso_local i32 @printf(i8*, ...) #1


!llvm.module.flags = !{!0}
!llvm.ident = !{!1}

!0 = !{i32 1, !"wchar_size", i32 4}
!1 = !{!"clang version 10.0.0-4ubuntu1 "}
