; ModuleID = 'source-C-CXX/15/291.c'
source_filename = "source-C-CXX/15/291.c"
target datalayout = "e-m:e-p270:32:32-p271:32:32-p272:64:64-i64:64-f80:128-n8:16:32:64-S128"
target triple = "x86_64-pc-linux-gnu"

@.str = private unnamed_addr constant [3 x i8] c"%d\00", align 1
@.str.1 = private unnamed_addr constant [10 x i8] c"%d%d%d%d\0A\00", align 1
@.str.2 = private unnamed_addr constant [8 x i8] c"%d%d%d\0A\00", align 1
@.str.3 = private unnamed_addr constant [6 x i8] c"%d%d\0A\00", align 1
@.str.4 = private unnamed_addr constant [4 x i8] c"%d\0A\00", align 1

; Function Attrs: nofree nounwind sspstrong uwtable
define dso_local i32 @main() local_unnamed_addr #0 {
  %1 = alloca i32, align 4
  %2 = bitcast i32* %1 to i8*
  call void @llvm.lifetime.start.p0i8(i64 4, i8* nonnull %2) #3
  %3 = call i32 (i8*, ...) @__isoc99_scanf(i8* getelementptr inbounds ([3 x i8], [3 x i8]* @.str, i64 0, i64 0), i32* nonnull %1)
  %4 = load i32, i32* %1, align 4, !tbaa !5
  %5 = icmp sgt i32 %4, 999
  br i1 %5, label %10, label %6

6:                                                ; preds = %0
  %7 = icmp sgt i32 %4, 99
  br i1 %7, label %20, label %8

8:                                                ; preds = %6
  %9 = icmp sgt i32 %4, 9
  br i1 %9, label %37, label %55

10:                                               ; preds = %0
  %11 = udiv i32 %4, 1000
  %12 = mul nsw i32 %11, -1000
  %13 = add nsw i32 %12, %4
  %14 = sdiv i32 %13, 100
  %15 = mul nsw i32 %14, -100
  %16 = add i32 %15, %13
  %17 = sdiv i32 %16, 10
  %18 = urem i32 %4, 10
  %19 = call i32 (i8*, ...) @printf(i8* nonnull dereferenceable(1) getelementptr inbounds ([10 x i8], [10 x i8]* @.str.1, i64 0, i64 0), i32 %18, i32 %17, i32 %14, i32 %11)
  br label %58

20:                                               ; preds = %6
  %21 = trunc i32 %4 to i16
  %22 = udiv i16 %21, 1000
  %23 = zext i16 %22 to i32
  %24 = mul nuw nsw i32 %23, -1000
  %25 = add nuw nsw i32 %24, %4
  %26 = trunc i32 %25 to i16
  %27 = udiv i16 %26, 100
  %28 = zext i16 %27 to i32
  %29 = mul nsw i32 %28, -100
  %30 = add nsw i32 %29, %25
  %31 = trunc i32 %30 to i16
  %32 = sdiv i16 %31, 10
  %33 = sext i16 %32 to i32
  %34 = urem i16 %21, 10
  %35 = zext i16 %34 to i32
  %36 = call i32 (i8*, ...) @printf(i8* nonnull dereferenceable(1) getelementptr inbounds ([8 x i8], [8 x i8]* @.str.2, i64 0, i64 0), i32 %35, i32 %33, i32 %28)
  br label %58

37:                                               ; preds = %8
  %38 = trunc i32 %4 to i16
  %39 = udiv i16 %38, 1000
  %40 = zext i16 %39 to i32
  %41 = mul nuw nsw i32 %40, -1000
  %42 = add nuw nsw i32 %41, %4
  %43 = trunc i32 %42 to i8
  %44 = udiv i8 %43, 100
  %45 = zext i8 %44 to i32
  %46 = mul nuw nsw i32 %45, -100
  %47 = add nuw nsw i32 %46, %42
  %48 = trunc i32 %47 to i8
  %49 = udiv i8 %48, 10
  %50 = zext i8 %49 to i32
  %51 = trunc i32 %4 to i8
  %52 = urem i8 %51, 10
  %53 = zext i8 %52 to i32
  %54 = call i32 (i8*, ...) @printf(i8* nonnull dereferenceable(1) getelementptr inbounds ([6 x i8], [6 x i8]* @.str.3, i64 0, i64 0), i32 %53, i32 %50)
  br label %58

55:                                               ; preds = %8
  %56 = srem i32 %4, 10
  %57 = call i32 (i8*, ...) @printf(i8* nonnull dereferenceable(1) getelementptr inbounds ([4 x i8], [4 x i8]* @.str.4, i64 0, i64 0), i32 %56)
  br label %58

58:                                               ; preds = %55, %37, %20, %10
  call void @llvm.lifetime.end.p0i8(i64 4, i8* nonnull %2) #3
  ret i32 0
}

; Function Attrs: argmemonly mustprogress nofree nosync nounwind willreturn
declare void @llvm.lifetime.start.p0i8(i64 immarg, i8* nocapture) #1

; Function Attrs: nofree nounwind
declare noundef i32 @__isoc99_scanf(i8* nocapture noundef readonly, ...) local_unnamed_addr #2

; Function Attrs: nofree nounwind
declare noundef i32 @printf(i8* nocapture noundef readonly, ...) local_unnamed_addr #2

; Function Attrs: argmemonly mustprogress nofree nosync nounwind willreturn
declare void @llvm.lifetime.end.p0i8(i64 immarg, i8* nocapture) #1


!llvm.module.flags = !{!0, !1, !2, !3}
!llvm.ident = !{!4}

!0 = !{i32 1, !"wchar_size", i32 4}
!1 = !{i32 7, !"PIC Level", i32 2}
!2 = !{i32 7, !"PIE Level", i32 2}
!3 = !{i32 7, !"uwtable", i32 1}
!4 = !{!"clang version 13.0.0"}
!5 = !{!6, !6, i64 0}
!6 = !{!"int", !7, i64 0}
!7 = !{!"omnipotent char", !8, i64 0}
!8 = !{!"Simple C/C++ TBAA"}
